target datalayout = "e-m:e-p270:32:32-p271:32:32-p272:64:64-i64:64-i128:128-f80:128-n8:16:32:64-S128"
target triple = "x86_64-pc-linux-gnu"

%struct.AVChannelLayout = type { i32, i32, %union.anon, ptr }
%union.anon = type { i64 }
%struct.AVFormatContext = type { ptr, ptr, ptr, ptr, ptr, i32, i32, ptr, i32, ptr, i32, ptr, ptr, i64, i64, i64, i32, i32, i32, i64, i64, ptr, i32, i32, ptr, i32, i32, i32, i32, ptr, i64, i32, i32, %struct.AVIOInterruptCB, i32, i32, i32, i32, i64, i32, i32, i32, i32, i32, i32, i32, i32, i32, i32, i32, i32, i64, i32, i32, i32, i32, i32, ptr, ptr, ptr, ptr, i32, ptr, ptr, ptr, ptr, i32, ptr, ptr, i64, ptr, ptr, ptr, i64 }
%struct.AVIOInterruptCB = type { ptr, ptr }
%struct.Wc3DemuxContext = type { i32, i32, i64, i32, i32, ptr }
%struct.AVStream = type { ptr, i32, i32, ptr, ptr, %struct.AVRational, i64, i64, i64, i32, i32, %struct.AVRational, ptr, %struct.AVRational, %struct.AVPacket, i32, %struct.AVRational, i32 }
%struct.AVPacket = type { ptr, i64, i64, ptr, i32, i32, i32, ptr, i32, i64, i64, ptr, ptr, %struct.AVRational }
%struct.AVRational = type { i32, i32 }
%struct.AVCodecParameters = type { i32, i32, i32, ptr, i32, ptr, i32, i32, i64, i32, i32, i32, i32, i32, i32, %struct.AVRational, %struct.AVRational, i32, i32, i32, i32, i32, i32, i32, %struct.AVChannelLayout, i32, i32, i32, i32, i32, i32 }

@.str.2 = private unnamed_addr constant [6 x i8] c"title\00", align 1
@.str.3 = private unnamed_addr constant [28 x i8] c"unrecognized WC3 chunk: %s\0A\00", align 1

; Function Attrs: nounwind uwtable
define internal i32 @wc3_read_header(ptr noundef %0) #0 {
  %2 = alloca i32, align 4
  %3 = alloca ptr, align 8
  %4 = alloca ptr, align 8
  %5 = alloca ptr, align 8
  %6 = alloca i32, align 4
  %7 = alloca i32, align 4
  %8 = alloca ptr, align 8
  %9 = alloca i32, align 4
  %10 = alloca ptr, align 8
  %11 = alloca i32, align 4
  %12 = alloca [32 x i8], align 1
  %13 = alloca %struct.AVChannelLayout, align 8
  store ptr %0, ptr %3, align 8, !tbaa !15
  call void @llvm.lifetime.start.p0(i64 8, ptr %4) #6
  %14 = load ptr, ptr %3, align 8, !tbaa !15
  %15 = getelementptr inbounds nuw %struct.AVFormatContext, ptr %14, i32 0, i32 3
  %16 = load ptr, ptr %15, align 8, !tbaa !17
  store ptr %16, ptr %4, align 8, !tbaa !32
  call void @llvm.lifetime.start.p0(i64 8, ptr %5) #6
  %17 = load ptr, ptr %3, align 8, !tbaa !15
  %18 = getelementptr inbounds nuw %struct.AVFormatContext, ptr %17, i32 0, i32 4
  %19 = load ptr, ptr %18, align 8, !tbaa !34
  store ptr %19, ptr %5, align 8, !tbaa !35
  call void @llvm.lifetime.start.p0(i64 4, ptr %6) #6
  call void @llvm.lifetime.start.p0(i64 4, ptr %7) #6
  call void @llvm.lifetime.start.p0(i64 8, ptr %8) #6
  call void @llvm.lifetime.start.p0(i64 4, ptr %9) #6
  store i32 0, ptr %9, align 4, !tbaa !36
  call void @llvm.lifetime.start.p0(i64 8, ptr %10) #6
  %20 = load ptr, ptr %4, align 8, !tbaa !32
  %21 = getelementptr inbounds nuw %struct.Wc3DemuxContext, ptr %20, i32 0, i32 0
  store i32 320, ptr %21, align 8, !tbaa !37
  %22 = load ptr, ptr %4, align 8, !tbaa !32
  %23 = getelementptr inbounds nuw %struct.Wc3DemuxContext, ptr %22, i32 0, i32 1
  store i32 165, ptr %23, align 4, !tbaa !40
  %24 = load ptr, ptr %4, align 8, !tbaa !32
  %25 = getelementptr inbounds nuw %struct.Wc3DemuxContext, ptr %24, i32 0, i32 2
  store i64 0, ptr %25, align 8, !tbaa !41
  %26 = load ptr, ptr %4, align 8, !tbaa !32
  %27 = getelementptr inbounds nuw %struct.Wc3DemuxContext, ptr %26, i32 0, i32 4
  store i32 0, ptr %27, align 4, !tbaa !42
  %28 = load ptr, ptr %4, align 8, !tbaa !32
  %29 = getelementptr inbounds nuw %struct.Wc3DemuxContext, ptr %28, i32 0, i32 3
  store i32 0, ptr %29, align 8, !tbaa !43
  %30 = call ptr @av_packet_alloc()
  %31 = load ptr, ptr %4, align 8, !tbaa !32
  %32 = getelementptr inbounds nuw %struct.Wc3DemuxContext, ptr %31, i32 0, i32 5
  store ptr %30, ptr %32, align 8, !tbaa !44
  %33 = load ptr, ptr %4, align 8, !tbaa !32
  %34 = getelementptr inbounds nuw %struct.Wc3DemuxContext, ptr %33, i32 0, i32 5
  %35 = load ptr, ptr %34, align 8, !tbaa !44
  %36 = icmp ne ptr %35, null
  br i1 %36, label %38, label %37

37:                                               ; preds = %1
  store i32 -12, ptr %2, align 4
  store i32 1, ptr %11, align 4
  br label %232

38:                                               ; preds = %1
  %39 = load ptr, ptr %5, align 8, !tbaa !35
  %40 = call i64 @avio_skip(ptr noundef %39, i64 noundef 12)
  %41 = load ptr, ptr %5, align 8, !tbaa !35
  %42 = call i32 @avio_rl32(ptr noundef %41)
  store i32 %42, ptr %6, align 4, !tbaa !36
  %43 = load ptr, ptr %5, align 8, !tbaa !35
  %44 = call i32 @avio_rb32(ptr noundef %43)
  %45 = add i32 %44, 1
  %46 = and i32 %45, -2
  store i32 %46, ptr %7, align 4, !tbaa !36
  br label %47

47:                                               ; preds = %116, %38
  %48 = load i32, ptr %6, align 4, !tbaa !36
  switch i32 %48, label %99 [
    i32 1145982803, label %49
    i32 1480871497, label %49
    i32 1598247007, label %54
    i32 1296125506, label %57
    i32 1163544915, label %82
    i32 1414283600, label %91
  ]

49:                                               ; preds = %47, %47
  %50 = load ptr, ptr %5, align 8, !tbaa !35
  %51 = load i32, ptr %7, align 4, !tbaa !36
  %52 = zext i32 %51 to i64
  %53 = call i64 @avio_skip(ptr noundef %50, i64 noundef %52)
  br label %104

54:                                               ; preds = %47
  %55 = load ptr, ptr %5, align 8, !tbaa !35
  %56 = call i64 @avio_skip(ptr noundef %55, i64 noundef 12)
  br label %104

57:                                               ; preds = %47
  %58 = load i32, ptr %7, align 4, !tbaa !36
  %59 = add i32 %58, 1
  %60 = zext i32 %59 to i64
  %61 = call noalias ptr @av_malloc(i64 noundef %60)
  store ptr %61, ptr %10, align 8, !tbaa !45
  %62 = load ptr, ptr %10, align 8, !tbaa !45
  %63 = icmp ne ptr %62, null
  br i1 %63, label %65, label %64

64:                                               ; preds = %57
  store i32 -12, ptr %2, align 4
  store i32 1, ptr %11, align 4
  br label %232

65:                                               ; preds = %57
  %66 = load ptr, ptr %5, align 8, !tbaa !35
  %67 = load ptr, ptr %10, align 8, !tbaa !45
  %68 = load i32, ptr %7, align 4, !tbaa !36
  %69 = call i32 @avio_read(ptr noundef %66, ptr noundef %67, i32 noundef %68)
  store i32 %69, ptr %9, align 4, !tbaa !36
  %70 = load i32, ptr %7, align 4, !tbaa !36
  %71 = icmp ne i32 %69, %70
  br i1 %71, label %72, label %73

72:                                               ; preds = %65
  call void @av_freep(ptr noundef %10)
  store i32 -5, ptr %2, align 4
  store i32 1, ptr %11, align 4
  br label %232

73:                                               ; preds = %65
  %74 = load ptr, ptr %10, align 8, !tbaa !45
  %75 = load i32, ptr %7, align 4, !tbaa !36
  %76 = zext i32 %75 to i64
  %77 = getelementptr inbounds nuw i8, ptr %74, i64 %76
  store i8 0, ptr %77, align 1, !tbaa !14
  %78 = load ptr, ptr %3, align 8, !tbaa !15
  %79 = getelementptr inbounds nuw %struct.AVFormatContext, ptr %78, i32 0, i32 29
  %80 = load ptr, ptr %10, align 8, !tbaa !45
  %81 = call i32 @av_dict_set(ptr noundef %79, ptr noundef @.str.2, ptr noundef %80, i32 noundef 8)
  br label %104

82:                                               ; preds = %47
  %83 = load ptr, ptr %5, align 8, !tbaa !35
  %84 = call i32 @avio_rl32(ptr noundef %83)
  %85 = load ptr, ptr %4, align 8, !tbaa !32
  %86 = getelementptr inbounds nuw %struct.Wc3DemuxContext, ptr %85, i32 0, i32 0
  store i32 %84, ptr %86, align 8, !tbaa !37
  %87 = load ptr, ptr %5, align 8, !tbaa !35
  %88 = call i32 @avio_rl32(ptr noundef %87)
  %89 = load ptr, ptr %4, align 8, !tbaa !32
  %90 = getelementptr inbounds nuw %struct.Wc3DemuxContext, ptr %89, i32 0, i32 1
  store i32 %88, ptr %90, align 4, !tbaa !40
  br label %104

91:                                               ; preds = %47
  %92 = load ptr, ptr %5, align 8, !tbaa !35
  %93 = call i64 @avio_seek(ptr noundef %92, i64 noundef -8, i32 noundef 1)
  %94 = load ptr, ptr %5, align 8, !tbaa !35
  %95 = load ptr, ptr %4, align 8, !tbaa !32
  %96 = getelementptr inbounds nuw %struct.Wc3DemuxContext, ptr %95, i32 0, i32 5
  %97 = load ptr, ptr %96, align 8, !tbaa !44
  %98 = call i32 @av_append_packet(ptr noundef %94, ptr noundef %97, i32 noundef 776)
  br label %104

99:                                               ; preds = %47
  %100 = load ptr, ptr %3, align 8, !tbaa !15
  call void @llvm.memset.p0.i64(ptr align 1 %12, i8 0, i64 32, i1 false)
  %101 = getelementptr inbounds [32 x i8], ptr %12, i64 0, i64 0
  %102 = load i32, ptr %6, align 4, !tbaa !36
  %103 = call ptr @av_fourcc_make_string(ptr noundef %101, i32 noundef %102)
  call void (ptr, i32, ptr, ...) @av_log(ptr noundef %100, i32 noundef 16, ptr noundef @.str.3, ptr noundef %103)
  store i32 -1094995529, ptr %2, align 4
  store i32 1, ptr %11, align 4
  br label %232

104:                                              ; preds = %91, %82, %73, %54, %49
  %105 = load ptr, ptr %5, align 8, !tbaa !35
  %106 = call i32 @avio_rl32(ptr noundef %105)
  store i32 %106, ptr %6, align 4, !tbaa !36
  %107 = load ptr, ptr %5, align 8, !tbaa !35
  %108 = call i32 @avio_rb32(ptr noundef %107)
  %109 = add i32 %108, 1
  %110 = and i32 %109, -2
  store i32 %110, ptr %7, align 4, !tbaa !36
  %111 = load ptr, ptr %5, align 8, !tbaa !35
  %112 = call i32 @avio_feof(ptr noundef %111)
  %113 = icmp ne i32 %112, 0
  br i1 %113, label %114, label %115

114:                                              ; preds = %104
  store i32 -5, ptr %2, align 4
  store i32 1, ptr %11, align 4
  br label %232

115:                                              ; preds = %104
  br label %116

116:                                              ; preds = %115
  %117 = load i32, ptr %6, align 4, !tbaa !36
  %118 = icmp ne i32 %117, 1212371522
  br i1 %118, label %47, label %119, !llvm.loop !46

119:                                              ; preds = %116
  %120 = load ptr, ptr %3, align 8, !tbaa !15
  %121 = call ptr @avformat_new_stream(ptr noundef %120, ptr noundef null)
  store ptr %121, ptr %8, align 8, !tbaa !48
  %122 = load ptr, ptr %8, align 8, !tbaa !48
  %123 = icmp ne ptr %122, null
  br i1 %123, label %125, label %124

124:                                              ; preds = %119
  store i32 -12, ptr %2, align 4
  store i32 1, ptr %11, align 4
  br label %232

125:                                              ; preds = %119
  %126 = load ptr, ptr %8, align 8, !tbaa !48
  call void @avpriv_set_pts_info(ptr noundef %126, i32 noundef 33, i32 noundef 1, i32 noundef 15)
  %127 = load ptr, ptr %8, align 8, !tbaa !48
  %128 = getelementptr inbounds nuw %struct.AVStream, ptr %127, i32 0, i32 1
  %129 = load i32, ptr %128, align 8, !tbaa !50
  %130 = load ptr, ptr %4, align 8, !tbaa !32
  %131 = getelementptr inbounds nuw %struct.Wc3DemuxContext, ptr %130, i32 0, i32 3
  store i32 %129, ptr %131, align 8, !tbaa !43
  %132 = load ptr, ptr %8, align 8, !tbaa !48
  %133 = getelementptr inbounds nuw %struct.AVStream, ptr %132, i32 0, i32 3
  %134 = load ptr, ptr %133, align 8, !tbaa !57
  %135 = getelementptr inbounds nuw %struct.AVCodecParameters, ptr %134, i32 0, i32 0
  store i32 0, ptr %135, align 8, !tbaa !58
  %136 = load ptr, ptr %8, align 8, !tbaa !48
  %137 = getelementptr inbounds nuw %struct.AVStream, ptr %136, i32 0, i32 3
  %138 = load ptr, ptr %137, align 8, !tbaa !57
  %139 = getelementptr inbounds nuw %struct.AVCodecParameters, ptr %138, i32 0, i32 1
  store i32 40, ptr %139, align 4, !tbaa !61
  %140 = load ptr, ptr %8, align 8, !tbaa !48
  %141 = getelementptr inbounds nuw %struct.AVStream, ptr %140, i32 0, i32 3
  %142 = load ptr, ptr %141, align 8, !tbaa !57
  %143 = getelementptr inbounds nuw %struct.AVCodecParameters, ptr %142, i32 0, i32 2
  store i32 0, ptr %143, align 8, !tbaa !62
  %144 = load ptr, ptr %4, align 8, !tbaa !32
  %145 = getelementptr inbounds nuw %struct.Wc3DemuxContext, ptr %144, i32 0, i32 0
  %146 = load i32, ptr %145, align 8, !tbaa !37
  %147 = load ptr, ptr %8, align 8, !tbaa !48
  %148 = getelementptr inbounds nuw %struct.AVStream, ptr %147, i32 0, i32 3
  %149 = load ptr, ptr %148, align 8, !tbaa !57
  %150 = getelementptr inbounds nuw %struct.AVCodecParameters, ptr %149, i32 0, i32 13
  store i32 %146, ptr %150, align 8, !tbaa !63
  %151 = load ptr, ptr %4, align 8, !tbaa !32
  %152 = getelementptr inbounds nuw %struct.Wc3DemuxContext, ptr %151, i32 0, i32 1
  %153 = load i32, ptr %152, align 4, !tbaa !40
  %154 = load ptr, ptr %8, align 8, !tbaa !48
  %155 = getelementptr inbounds nuw %struct.AVStream, ptr %154, i32 0, i32 3
  %156 = load ptr, ptr %155, align 8, !tbaa !57
  %157 = getelementptr inbounds nuw %struct.AVCodecParameters, ptr %156, i32 0, i32 14
  store i32 %153, ptr %157, align 4, !tbaa !64
  %158 = load ptr, ptr %3, align 8, !tbaa !15
  %159 = call ptr @avformat_new_stream(ptr noundef %158, ptr noundef null)
  store ptr %159, ptr %8, align 8, !tbaa !48
  %160 = load ptr, ptr %8, align 8, !tbaa !48
  %161 = icmp ne ptr %160, null
  br i1 %161, label %163, label %162

162:                                              ; preds = %125
  store i32 -12, ptr %2, align 4
  store i32 1, ptr %11, align 4
  br label %232

163:                                              ; preds = %125
  %164 = load ptr, ptr %8, align 8, !tbaa !48
  call void @avpriv_set_pts_info(ptr noundef %164, i32 noundef 33, i32 noundef 1, i32 noundef 15)
  %165 = load ptr, ptr %8, align 8, !tbaa !48
  %166 = getelementptr inbounds nuw %struct.AVStream, ptr %165, i32 0, i32 1
  %167 = load i32, ptr %166, align 8, !tbaa !50
  %168 = load ptr, ptr %4, align 8, !tbaa !32
  %169 = getelementptr inbounds nuw %struct.Wc3DemuxContext, ptr %168, i32 0, i32 4
  store i32 %167, ptr %169, align 4, !tbaa !42
  %170 = load ptr, ptr %8, align 8, !tbaa !48
  %171 = getelementptr inbounds nuw %struct.AVStream, ptr %170, i32 0, i32 3
  %172 = load ptr, ptr %171, align 8, !tbaa !57
  %173 = getelementptr inbounds nuw %struct.AVCodecParameters, ptr %172, i32 0, i32 0
  store i32 1, ptr %173, align 8, !tbaa !58
  %174 = load ptr, ptr %8, align 8, !tbaa !48
  %175 = getelementptr inbounds nuw %struct.AVStream, ptr %174, i32 0, i32 3
  %176 = load ptr, ptr %175, align 8, !tbaa !57
  %177 = getelementptr inbounds nuw %struct.AVCodecParameters, ptr %176, i32 0, i32 1
  store i32 65536, ptr %177, align 4, !tbaa !61
  %178 = load ptr, ptr %8, align 8, !tbaa !48
  %179 = getelementptr inbounds nuw %struct.AVStream, ptr %178, i32 0, i32 3
  %180 = load ptr, ptr %179, align 8, !tbaa !57
  %181 = getelementptr inbounds nuw %struct.AVCodecParameters, ptr %180, i32 0, i32 2
  store i32 1, ptr %181, align 8, !tbaa !62
  %182 = load ptr, ptr %8, align 8, !tbaa !48
  %183 = getelementptr inbounds nuw %struct.AVStream, ptr %182, i32 0, i32 3
  %184 = load ptr, ptr %183, align 8, !tbaa !57
  %185 = getelementptr inbounds nuw %struct.AVCodecParameters, ptr %184, i32 0, i32 24
  %186 = getelementptr inbounds nuw %struct.AVChannelLayout, ptr %13, i32 0, i32 0
  store i32 1, ptr %186, align 8, !tbaa !65
  %187 = getelementptr inbounds nuw %struct.AVChannelLayout, ptr %13, i32 0, i32 1
  store i32 1, ptr %187, align 4, !tbaa !66
  %188 = getelementptr inbounds nuw %struct.AVChannelLayout, ptr %13, i32 0, i32 2
  store i64 4, ptr %188, align 8, !tbaa !14
  %189 = getelementptr inbounds nuw %struct.AVChannelLayout, ptr %13, i32 0, i32 3
  store ptr null, ptr %189, align 8, !tbaa !67
  call void @llvm.memcpy.p0.p0.i64(ptr align 8 %185, ptr align 8 %13, i64 24, i1 false), !tbaa.struct !68
  %190 = load ptr, ptr %8, align 8, !tbaa !48
  %191 = getelementptr inbounds nuw %struct.AVStream, ptr %190, i32 0, i32 3
  %192 = load ptr, ptr %191, align 8, !tbaa !57
  %193 = getelementptr inbounds nuw %struct.AVCodecParameters, ptr %192, i32 0, i32 9
  store i32 16, ptr %193, align 8, !tbaa !70
  %194 = load ptr, ptr %8, align 8, !tbaa !48
  %195 = getelementptr inbounds nuw %struct.AVStream, ptr %194, i32 0, i32 3
  %196 = load ptr, ptr %195, align 8, !tbaa !57
  %197 = getelementptr inbounds nuw %struct.AVCodecParameters, ptr %196, i32 0, i32 25
  store i32 22050, ptr %197, align 8, !tbaa !71
  %198 = load ptr, ptr %8, align 8, !tbaa !48
  %199 = getelementptr inbounds nuw %struct.AVStream, ptr %198, i32 0, i32 3
  %200 = load ptr, ptr %199, align 8, !tbaa !57
  %201 = getelementptr inbounds nuw %struct.AVCodecParameters, ptr %200, i32 0, i32 24
  %202 = getelementptr inbounds nuw %struct.AVChannelLayout, ptr %201, i32 0, i32 1
  %203 = load i32, ptr %202, align 4, !tbaa !72
  %204 = load ptr, ptr %8, align 8, !tbaa !48
  %205 = getelementptr inbounds nuw %struct.AVStream, ptr %204, i32 0, i32 3
  %206 = load ptr, ptr %205, align 8, !tbaa !57
  %207 = getelementptr inbounds nuw %struct.AVCodecParameters, ptr %206, i32 0, i32 25
  %208 = load i32, ptr %207, align 8, !tbaa !71
  %209 = mul nsw i32 %203, %208
  %210 = load ptr, ptr %8, align 8, !tbaa !48
  %211 = getelementptr inbounds nuw %struct.AVStream, ptr %210, i32 0, i32 3
  %212 = load ptr, ptr %211, align 8, !tbaa !57
  %213 = getelementptr inbounds nuw %struct.AVCodecParameters, ptr %212, i32 0, i32 9
  %214 = load i32, ptr %213, align 8, !tbaa !70
  %215 = mul nsw i32 %209, %214
  %216 = sext i32 %215 to i64
  %217 = load ptr, ptr %8, align 8, !tbaa !48
  %218 = getelementptr inbounds nuw %struct.AVStream, ptr %217, i32 0, i32 3
  %219 = load ptr, ptr %218, align 8, !tbaa !57
  %220 = getelementptr inbounds nuw %struct.AVCodecParameters, ptr %219, i32 0, i32 8
  store i64 %216, ptr %220, align 8, !tbaa !73
  %221 = load ptr, ptr %8, align 8, !tbaa !48
  %222 = getelementptr inbounds nuw %struct.AVStream, ptr %221, i32 0, i32 3
  %223 = load ptr, ptr %222, align 8, !tbaa !57
  %224 = getelementptr inbounds nuw %struct.AVCodecParameters, ptr %223, i32 0, i32 24
  %225 = getelementptr inbounds nuw %struct.AVChannelLayout, ptr %224, i32 0, i32 1
  %226 = load i32, ptr %225, align 4, !tbaa !72
  %227 = mul nsw i32 16, %226
  %228 = load ptr, ptr %8, align 8, !tbaa !48
  %229 = getelementptr inbounds nuw %struct.AVStream, ptr %228, i32 0, i32 3
  %230 = load ptr, ptr %229, align 8, !tbaa !57
  %231 = getelementptr inbounds nuw %struct.AVCodecParameters, ptr %230, i32 0, i32 26
  store i32 %227, ptr %231, align 4, !tbaa !74
  store i32 0, ptr %2, align 4
  store i32 1, ptr %11, align 4
  br label %232

232:                                              ; preds = %163, %162, %124, %114, %99, %72, %64, %37
  call void @llvm.lifetime.end.p0(i64 8, ptr %10) #6
  call void @llvm.lifetime.end.p0(i64 4, ptr %9) #6
  call void @llvm.lifetime.end.p0(i64 8, ptr %8) #6
  call void @llvm.lifetime.end.p0(i64 4, ptr %7) #6
  call void @llvm.lifetime.end.p0(i64 4, ptr %6) #6
  call void @llvm.lifetime.end.p0(i64 8, ptr %5) #6
  call void @llvm.lifetime.end.p0(i64 8, ptr %4) #6
  %233 = load i32, ptr %2, align 4
  ret i32 %233
}