; Function Attrs: nounwind uwtable
define internal range(i32 -1094995529, 1) i32 @wc3_read_header(ptr noundef %0) #1 {
  %2 = alloca ptr, align 8
  %3 = alloca [32 x i8], align 1
  %4 = getelementptr inbounds nuw i8, ptr %0, i64 24
  %5 = load ptr, ptr %4, align 8, !tbaa !13
  %6 = getelementptr inbounds nuw i8, ptr %0, i64 32
  %7 = load ptr, ptr %6, align 8, !tbaa !28
  call void @llvm.lifetime.start.p0(i64 8, ptr nonnull %2) #5
  store i32 320, ptr %5, align 8, !tbaa !29
  %8 = getelementptr inbounds nuw i8, ptr %5, i64 4
  store i32 165, ptr %8, align 4, !tbaa !32
  %9 = getelementptr inbounds nuw i8, ptr %5, i64 8
  %10 = getelementptr inbounds nuw i8, ptr %5, i64 20
  %11 = getelementptr inbounds nuw i8, ptr %5, i64 16
  tail call void @llvm.memset.p0.i64(ptr noundef nonnull align 8 dereferenceable(16) %9, i8 0, i64 16, i1 false)
  %12 = tail call ptr @av_packet_alloc() #5
  %13 = getelementptr inbounds nuw i8, ptr %5, i64 24
  store ptr %12, ptr %13, align 8, !tbaa !33
  %.not = icmp eq ptr %12, null
  br i1 %.not, label %.loopexit, label %14

14:                                               ; preds = %1
  %15 = tail call i64 @avio_skip(ptr noundef %7, i64 noundef 12) #5
  %16 = tail call i32 @avio_rl32(ptr noundef %7) #5
  %17 = tail call i32 @avio_rb32(ptr noundef %7) #5
  %18 = getelementptr inbounds nuw i8, ptr %0, i64 192
  %.promoted = load ptr, ptr %2, align 8
  br label %19

19:                                               ; preds = %51, %14
  %20 = phi ptr [ %.promoted, %14 ], [ %47, %51 ]
  %.065.in.in = phi i32 [ %17, %14 ], [ %49, %51 ]
  %.064 = phi i32 [ %16, %14 ], [ %48, %51 ]
  %.065.in = add i32 %.065.in.in, 1
  %.065 = and i32 %.065.in, -2
  switch i32 %.064, label %44 [
    i32 1145982803, label %21
    i32 1480871497, label %21
    i32 1598247007, label %24
    i32 1296125506, label %26
    i32 1163544915, label %37
    i32 1414283600, label %40
  ]

21:                                               ; preds = %19, %19
  %22 = zext i32 %.065 to i64
  %23 = tail call i64 @avio_skip(ptr noundef %7, i64 noundef %22) #5
  br label %46

24:                                               ; preds = %19
  %25 = tail call i64 @avio_skip(ptr noundef %7, i64 noundef 12) #5
  br label %46

26:                                               ; preds = %19
  %27 = or i32 %.065.in, 1
  %28 = zext i32 %27 to i64
  %29 = tail call noalias ptr @av_malloc(i64 noundef %28) #5
  %.not70 = icmp eq ptr %29, null
  br i1 %.not70, label %.loopexit.loopexit, label %30

30:                                               ; preds = %26
  %31 = tail call i32 @avio_read(ptr noundef %7, ptr noundef nonnull %29, i32 noundef %.065) #5
  %.not71 = icmp eq i32 %31, %.065
  br i1 %.not71, label %33, label %32

32:                                               ; preds = %30
  store ptr %29, ptr %2, align 8
  call void @av_freep(ptr noundef nonnull %2) #5
  br label %.loopexit

33:                                               ; preds = %30
  %34 = zext i32 %.065 to i64
  %35 = getelementptr inbounds nuw i8, ptr %29, i64 %34
  store i8 0, ptr %35, align 1, !tbaa !12
  %36 = tail call i32 @av_dict_set(ptr noundef nonnull %18, ptr noundef nonnull @.str.2, ptr noundef nonnull %29, i32 noundef 8) #5
  br label %46

37:                                               ; preds = %19
  %38 = tail call i32 @avio_rl32(ptr noundef %7) #5
  store i32 %38, ptr %5, align 8, !tbaa !29
  %39 = tail call i32 @avio_rl32(ptr noundef %7) #5
  store i32 %39, ptr %8, align 4, !tbaa !32
  br label %46

40:                                               ; preds = %19
  %41 = tail call i64 @avio_seek(ptr noundef %7, i64 noundef -8, i32 noundef 1) #5
  %42 = load ptr, ptr %13, align 8, !tbaa !33
  %43 = tail call i32 @av_append_packet(ptr noundef %7, ptr noundef %42, i32 noundef 776) #5
  br label %46

44:                                               ; preds = %19
  store ptr %20, ptr %2, align 8
  call void @llvm.memset.p0.i64(ptr noundef nonnull align 1 dereferenceable(32) %3, i8 0, i64 32, i1 false)
  %45 = call ptr @av_fourcc_make_string(ptr noundef nonnull %3, i32 noundef %.064) #5
  call void (ptr, i32, ptr, ...) @av_log(ptr noundef %0, i32 noundef 16, ptr noundef nonnull @.str.3, ptr noundef %45) #5
  br label %.loopexit

46:                                               ; preds = %40, %37, %33, %24, %21
  %47 = phi ptr [ %20, %40 ], [ %20, %37 ], [ %29, %33 ], [ %20, %24 ], [ %20, %21 ]
  %48 = tail call i32 @avio_rl32(ptr noundef %7) #5
  %49 = tail call i32 @avio_rb32(ptr noundef %7) #5
  %50 = tail call i32 @avio_feof(ptr noundef %7) #5
  %.not72 = icmp eq i32 %50, 0
  br i1 %.not72, label %51, label %.loopexit.loopexit

51:                                               ; preds = %46
  %.not73 = icmp eq i32 %48, 1212371522
  br i1 %.not73, label %52, label %19, !llvm.loop !34

52:                                               ; preds = %51
  store ptr %47, ptr %2, align 8
  %53 = tail call ptr @avformat_new_stream(ptr noundef %0, ptr noundef null) #5
  %.not74 = icmp eq ptr %53, null
  br i1 %.not74, label %.loopexit, label %54

54:                                               ; preds = %52
  tail call void @avpriv_set_pts_info(ptr noundef nonnull %53, i32 noundef 33, i32 noundef 1, i32 noundef 15) #5
  %55 = getelementptr inbounds nuw i8, ptr %53, i64 8
  %56 = load i32, ptr %55, align 8, !tbaa !36
  store i32 %56, ptr %11, align 8, !tbaa !43
  %57 = getelementptr inbounds nuw i8, ptr %53, i64 16
  %58 = load ptr, ptr %57, align 8, !tbaa !44
  store i32 0, ptr %58, align 8, !tbaa !45
  %59 = getelementptr inbounds nuw i8, ptr %58, i64 4
  store i32 40, ptr %59, align 4, !tbaa !48
  %60 = getelementptr inbounds nuw i8, ptr %58, i64 8
  store i32 0, ptr %60, align 8, !tbaa !49
  %61 = load i32, ptr %5, align 8, !tbaa !29
  %62 = getelementptr inbounds nuw i8, ptr %58, i64 72
  store i32 %61, ptr %62, align 8, !tbaa !50
  %63 = load i32, ptr %8, align 4, !tbaa !32
  %64 = getelementptr inbounds nuw i8, ptr %58, i64 76
  store i32 %63, ptr %64, align 4, !tbaa !51
  %65 = tail call ptr @avformat_new_stream(ptr noundef %0, ptr noundef null) #5
  %.not75 = icmp eq ptr %65, null
  br i1 %.not75, label %.loopexit, label %66

66:                                               ; preds = %54
  tail call void @avpriv_set_pts_info(ptr noundef nonnull %65, i32 noundef 33, i32 noundef 1, i32 noundef 15) #5
  %67 = getelementptr inbounds nuw i8, ptr %65, i64 8
  %68 = load i32, ptr %67, align 8, !tbaa !36
  store i32 %68, ptr %10, align 4, !tbaa !52
  %69 = getelementptr inbounds nuw i8, ptr %65, i64 16
  %70 = load ptr, ptr %69, align 8, !tbaa !44
  store i32 1, ptr %70, align 8, !tbaa !45
  %71 = getelementptr inbounds nuw i8, ptr %70, i64 4
  store i32 65536, ptr %71, align 4, !tbaa !48
  %72 = getelementptr inbounds nuw i8, ptr %70, i64 8
  store i32 1, ptr %72, align 8, !tbaa !49
  %73 = getelementptr inbounds nuw i8, ptr %70, i64 128
  store i32 1, ptr %73, align 8, !tbaa !53
  %.sroa.2.0..sroa_idx = getelementptr inbounds nuw i8, ptr %70, i64 132
  store i32 1, ptr %.sroa.2.0..sroa_idx, align 4, !tbaa !53
  %.sroa.3.0..sroa_idx = getelementptr inbounds nuw i8, ptr %70, i64 136
  store i64 4, ptr %.sroa.3.0..sroa_idx, align 8, !tbaa !12
  %.sroa.4.0..sroa_idx = getelementptr inbounds nuw i8, ptr %70, i64 144
  store ptr null, ptr %.sroa.4.0..sroa_idx, align 8, !tbaa !54
  %74 = load ptr, ptr %69, align 8, !tbaa !44
  %75 = getelementptr inbounds nuw i8, ptr %74, i64 56
  store i32 16, ptr %75, align 8, !tbaa !55
  %76 = getelementptr inbounds nuw i8, ptr %74, i64 152
  store i32 22050, ptr %76, align 8, !tbaa !56
  %77 = getelementptr inbounds nuw i8, ptr %74, i64 132
  %78 = load i32, ptr %77, align 4, !tbaa !57
  %79 = mul nsw i32 %78, 352800
  %80 = sext i32 %79 to i64
  %81 = getelementptr inbounds nuw i8, ptr %74, i64 48
  store i64 %80, ptr %81, align 8, !tbaa !58
  %82 = shl nsw i32 %78, 4
  %83 = getelementptr inbounds nuw i8, ptr %74, i64 156
  store i32 %82, ptr %83, align 4, !tbaa !59
  br label %.loopexit

.loopexit.loopexit:                               ; preds = %26, %46
  %84 = phi ptr [ %47, %46 ], [ %29, %26 ]
  %.0.ph = phi i32 [ -5, %46 ], [ -12, %26 ]
  store ptr %84, ptr %2, align 8
  br label %.loopexit

.loopexit:                                        ; preds = %.loopexit.loopexit, %54, %52, %1, %66, %44, %32
  %.0 = phi i32 [ -1094995529, %44 ], [ 0, %66 ], [ -5, %32 ], [ -12, %1 ], [ -12, %52 ], [ -12, %54 ], [ %.0.ph, %.loopexit.loopexit ]
  call void @llvm.lifetime.end.p0(i64 8, ptr nonnull %2) #5
  ret i32 %.0
}